; Function Attrs: nounwind uwtable
define nonnull ptr @l_Lean_Omega_LowerBound_sat___boxed(ptr noundef %0, ptr noundef %1) local_unnamed_addr #1 {
  %3 = ptrtoint ptr %0 to i64
  %4 = and i64 %3, 1
  %.not.i.i = icmp eq i64 %4, 0
  br i1 %.not.i.i, label %8, label %5

5:                                                ; preds = %2
  %6 = lshr i64 %3, 1
  %7 = trunc i64 %6 to i32
  br label %lean_obj_tag.exit.i

8:                                                ; preds = %2
  %9 = getelementptr i8, ptr %0, i64 4
  %.val.i.i = load i32, ptr %9, align 4
  %10 = lshr i32 %.val.i.i, 24
  br label %lean_obj_tag.exit.i

lean_obj_tag.exit.i:                              ; preds = %8, %5
  %.0.i.i = phi i32 [ %7, %5 ], [ %10, %8 ]
  %11 = icmp eq i32 %.0.i.i, 0
  br i1 %11, label %l_Lean_Omega_LowerBound_sat.exit, label %12

12:                                               ; preds = %lean_obj_tag.exit.i
  %13 = getelementptr inbounds nuw i8, ptr %0, i64 8
  %14 = load ptr, ptr %13, align 8, !tbaa !11
  %15 = ptrtoint ptr %14 to i64
  %16 = and i64 %15, 1
  %.not.i.i.i = icmp eq i64 %16, 0
  br i1 %.not.i.i.i, label %.critedge.i.i.i, label %17, !prof !4

17:                                               ; preds = %12
  %18 = ptrtoint ptr %1 to i64
  %19 = and i64 %18, 1
  %.not7.i.i.i = icmp eq i64 %19, 0
  br i1 %.not7.i.i.i, label %.critedge.i.i.i, label %20, !prof !4

20:                                               ; preds = %17
  %21 = lshr i64 %15, 1
  %22 = trunc i64 %21 to i32
  %23 = lshr i64 %18, 1
  %24 = trunc i64 %23 to i32
  %25 = icmp sle i32 %22, %24
  br label %lean_int_dec_le.exit.i

.critedge.i.i.i:                                  ; preds = %17, %12
  %26 = tail call zeroext i1 @lean_int_big_le(ptr noundef %14, ptr noundef %1) #4
  br label %lean_int_dec_le.exit.i

lean_int_dec_le.exit.i:                           ; preds = %.critedge.i.i.i, %20
  %.0.i.i.i = phi i1 [ %25, %20 ], [ %26, %.critedge.i.i.i ]
  %27 = select i1 %.0.i.i.i, i64 3, i64 1
  br label %l_Lean_Omega_LowerBound_sat.exit

l_Lean_Omega_LowerBound_sat.exit:                 ; preds = %lean_obj_tag.exit.i, %lean_int_dec_le.exit.i
  %.0.i = phi i64 [ %27, %lean_int_dec_le.exit.i ], [ 3, %lean_obj_tag.exit.i ]
  %28 = ptrtoint ptr %1 to i64
  %29 = and i64 %28, 1
  %.not = icmp eq i64 %29, 0
  br i1 %.not, label %30, label %lean_dec.exit

30:                                               ; preds = %l_Lean_Omega_LowerBound_sat.exit
  %31 = load i32, ptr %1, align 4, !tbaa !6
  %32 = icmp sgt i32 %31, 1
  br i1 %32, label %33, label %35, !prof !5

33:                                               ; preds = %30
  %34 = add nsw i32 %31, -1
  store i32 %34, ptr %1, align 4, !tbaa !6
  br label %lean_dec.exit

35:                                               ; preds = %30
  %.not.i6 = icmp eq i32 %31, 0
  br i1 %.not.i6, label %lean_dec.exit, label %36

36:                                               ; preds = %35
  tail call void @lean_dec_ref_cold(ptr noundef nonnull %1) #4
  br label %lean_dec.exit

lean_dec.exit:                                    ; preds = %36, %35, %33, %l_Lean_Omega_LowerBound_sat.exit
  br i1 %.not.i.i, label %37, label %lean_dec.exit5

37:                                               ; preds = %lean_dec.exit
  %38 = load i32, ptr %0, align 4, !tbaa !6
  %39 = icmp sgt i32 %38, 1
  br i1 %39, label %40, label %42, !prof !5

40:                                               ; preds = %37
  %41 = add nsw i32 %38, -1
  store i32 %41, ptr %0, align 4, !tbaa !6
  br label %lean_dec.exit5

42:                                               ; preds = %37
  %.not.i = icmp eq i32 %38, 0
  br i1 %.not.i, label %lean_dec.exit5, label %43

43:                                               ; preds = %42
  tail call void @lean_dec_ref_cold(ptr noundef nonnull %0) #4
  br label %lean_dec.exit5

lean_dec.exit5:                                   ; preds = %43, %42, %40, %lean_dec.exit
  %44 = inttoptr i64 %.0.i to ptr
  ret ptr %44
}